target datalayout = "e-m:e-p270:32:32-p271:32:32-p272:64:64-i64:64-i128:128-f80:128-n8:16:32:64-S128"
target triple = "x86_64-pc-linux-gnu"

@lj_err_allmsg = hidden global ptr @.str, align 8
@.str.1 = private unnamed_addr constant [10 x i8] c"%s:%d: %s\00", align 1

; Function Attrs: noinline noreturn nounwind uwtable
define hidden void @lj_err_lex(ptr noundef %0, ptr noundef %1, ptr noundef %2, i32 noundef %3, i32 noundef %4, ptr noundef %5) #6 {
  %7 = alloca ptr, align 8
  %8 = alloca ptr, align 8
  %9 = alloca ptr, align 8
  %10 = alloca i32, align 4
  %11 = alloca i32, align 4
  %12 = alloca ptr, align 8
  %13 = alloca [60 x i8], align 16
  %14 = alloca ptr, align 8
  store ptr %0, ptr %7, align 8, !tbaa !18
  store ptr %1, ptr %8, align 8, !tbaa !48
  store ptr %2, ptr %9, align 8, !tbaa !50
  store i32 %3, ptr %10, align 4, !tbaa !4
  store i32 %4, ptr %11, align 4, !tbaa !4
  store ptr %5, ptr %12, align 8, !tbaa !79
  call void @llvm.lifetime.start.p0(i64 60, ptr %13) #15
  call void @llvm.lifetime.start.p0(i64 8, ptr %14) #15
  %15 = getelementptr inbounds [60 x i8], ptr %13, i64 0, i64 0
  %16 = load ptr, ptr %8, align 8, !tbaa !48
  %17 = load i32, ptr %10, align 4, !tbaa !4
  call void @lj_debug_shortname(ptr noundef %15, ptr noundef %16, i32 noundef %17)
  %18 = load ptr, ptr %7, align 8, !tbaa !18
  %19 = load ptr, ptr @lj_err_allmsg, align 8, !tbaa !50
  %20 = load i32, ptr %11, align 4, !tbaa !4
  %21 = sext i32 %20 to i64
  %22 = getelementptr inbounds i8, ptr %19, i64 %21
  %23 = load ptr, ptr %12, align 8, !tbaa !79
  %24 = call ptr @lj_strfmt_pushvf(ptr noundef %18, ptr noundef %22, ptr noundef %23)
  store ptr %24, ptr %14, align 8, !tbaa !50
  %25 = load ptr, ptr %7, align 8, !tbaa !18
  %26 = getelementptr inbounds [60 x i8], ptr %13, i64 0, i64 0
  %27 = load i32, ptr %10, align 4, !tbaa !4
  %28 = load ptr, ptr %14, align 8, !tbaa !50
  %29 = call ptr (ptr, ptr, ...) @lj_strfmt_pushf(ptr noundef %25, ptr noundef @.str.1, ptr noundef %26, i32 noundef %27, ptr noundef %28)
  store ptr %29, ptr %14, align 8, !tbaa !50
  %30 = load ptr, ptr %9, align 8, !tbaa !50
  %31 = icmp ne ptr %30, null
  br i1 %31, label %32, label %39

32:                                               ; preds = %6
  %33 = load ptr, ptr %7, align 8, !tbaa !18
  %34 = load ptr, ptr @lj_err_allmsg, align 8, !tbaa !50
  %35 = getelementptr inbounds i8, ptr %34, i64 2178
  %36 = load ptr, ptr %14, align 8, !tbaa !50
  %37 = load ptr, ptr %9, align 8, !tbaa !50
  %38 = call ptr (ptr, ptr, ...) @lj_strfmt_pushf(ptr noundef %33, ptr noundef %35, ptr noundef %36, ptr noundef %37)
  br label %39

39:                                               ; preds = %32, %6
  %40 = load ptr, ptr %7, align 8, !tbaa !18
  call void @lj_err_throw(ptr noundef %40, i32 noundef 3) #18
  unreachable
}