; Function Attrs: noinline noreturn nounwind uwtable
define hidden void @lj_err_lex(ptr noundef %0, ptr noundef %1, ptr noundef %2, i32 noundef %3, i32 noundef %4, ptr noundef %5) local_unnamed_addr #5 {
  %7 = alloca [60 x i8], align 16
  call void @llvm.lifetime.start.p0(i64 60, ptr nonnull %7) #15
  call void @lj_debug_shortname(ptr noundef nonnull %7, ptr noundef %1, i32 noundef %3) #15
  %8 = load ptr, ptr @lj_err_allmsg, align 8, !tbaa !36
  %9 = sext i32 %4 to i64
  %10 = getelementptr inbounds i8, ptr %8, i64 %9
  %11 = call ptr @lj_strfmt_pushvf(ptr noundef %0, ptr noundef %10, ptr noundef %5) #15
  %12 = call ptr (ptr, ptr, ...) @lj_strfmt_pushf(ptr noundef %0, ptr noundef nonnull @.str.1, ptr noundef nonnull %7, i32 noundef %3, ptr noundef %11) #15
  %.not = icmp eq ptr %2, null
  br i1 %.not, label %17, label %13

13:                                               ; preds = %6
  %14 = load ptr, ptr @lj_err_allmsg, align 8, !tbaa !36
  %15 = getelementptr inbounds nuw i8, ptr %14, i64 2178
  %16 = call ptr (ptr, ptr, ...) @lj_strfmt_pushf(ptr noundef %0, ptr noundef nonnull %15, ptr noundef %12, ptr noundef nonnull %2) #15
  br label %17

17:                                               ; preds = %13, %6
  call void @lj_err_throw(ptr noundef %0, i32 noundef 3) #19
  unreachable
}